; Function Attrs: mustprogress nofree norecurse nosync nounwind willreturn memory(argmem: write) uwtable
define hidden noundef ptr @_Z36pj_projection_specific_setup_webmercP8PJconsts(ptr noundef returned writeonly initializes((104, 120), (488, 496)) %0) local_unnamed_addr #5 {
  %2 = getelementptr inbounds nuw i8, ptr %0, i64 488
  store double 1.000000e+00, ptr %2, align 8, !tbaa !44
  %3 = getelementptr inbounds nuw i8, ptr %0, i64 112
  store ptr @_ZL14merc_s_inverse5PJ_XYP8PJconsts, ptr %3, align 8, !tbaa !45
  %4 = getelementptr inbounds nuw i8, ptr %0, i64 104
  store ptr @_ZL14merc_s_forward5PJ_LPP8PJconsts, ptr %4, align 8, !tbaa !46
  ret ptr %0
}